MPLINK 5.09, LINKER
Linker Map File - Created Wed Dec 16 23:35:04 2020

                                 Section Info
                  Section       Type    Address   Location Size(Bytes)
                ---------  ---------  ---------  ---------  ---------
                   .org_0       code   0x000000    program   0x000000
                   .org_1       code   0x000000    program   0x000006
                   .org_2       code   0x000004    program   0x000ed6
                   .org_3       code   0x000800    program   0x0000e4
                   .org_4       code   0x000900    program   0x0000b6
       .config_2007_725.O       code   0x002007    program   0x000002



                              Program Memory Usage 
                               Start         End      
                           ---------   ---------      
                            0x000000    0x000002      
                            0x000004    0x00076e      
                            0x000800    0x000871      
                            0x000900    0x00095a      
                            0x002007    0x002007      
            2108 out of 4230 program addresses used, program memory utilization is 49%



                              Symbols - Sorted by Name
                     Name    Address   Location    Storage File                     
                ---------  ---------  ---------  --------- ---------                
               AcknTimout   0x0000ce    program     static C:\FPRC5RX\725.asm       
       ActivateOutputMask   0x0006de    program     static C:\FPRC5RX\RC5UTIL.asm   
        AddPinDataToTable   0x00061a    program     static C:\FPRC5RX\RC5UTIL.asm   
                  BT_done   0x00012c    program     static C:\FPRC5RX\725.asm       
                 BiToggle   0x0006f3    program     static C:\FPRC5RX\RC5UTIL.asm   
   BiToggleBootDelayPin10   0x000268    program     static C:\FPRC5RX\725.asm       
   BiToggleBootDelayPin11   0x000266    program     static C:\FPRC5RX\725.asm       
   BiToggleBootDelayPin12   0x000264    program     static C:\FPRC5RX\725.asm       
    BiToggleBootDelayPin9   0x00026a    program     static C:\FPRC5RX\725.asm       
          BiToggleDelayed   0x0006f6    program     static C:\FPRC5RX\RC5UTIL.asm   
             BiToggleJump   0x000239    program     static C:\FPRC5RX\725.asm       
            BiToggleJump2   0x00025c    program     static C:\FPRC5RX\725.asm       
        BiToggleJumpEnds2   0x000264    program     static C:\FPRC5RX\725.asm       
             BiToggleLoop   0x000233    program     static C:\FPRC5RX\725.asm       
         BiToggleNextPass   0x00026c    program     static C:\FPRC5RX\725.asm       
            BiTogglePin10   0x00024d    program     static C:\FPRC5RX\725.asm       
            BiTogglePin11   0x000247    program     static C:\FPRC5RX\725.asm       
            BiTogglePin12   0x000241    program     static C:\FPRC5RX\725.asm       
             BiTogglePin9   0x000253    program     static C:\FPRC5RX\725.asm       
       BiToggleSearchEnds   0x00026e    program     static C:\FPRC5RX\725.asm       
                BitToMask   0x00059b    program     static C:\FPRC5RX\RC5UTIL.asm   
             BitoggleEnds   0x00054f    program     static C:\FPRC5RX\RC5UTIL.asm   
               CFR_BadPin   0x000767    program     static C:\FPRC5RX\RC5UTIL.asm   
                 CFR_Exit   0x00076b    program     static C:\FPRC5RX\RC5UTIL.asm   
             CFR_NextWord   0x000756    program     static C:\FPRC5RX\RC5UTIL.asm   
    CODE_SIZE_FLASH_START   0x000900    program     static C:\FPRC5RX\725.asm       
      CODE_SIZE_I2C_START   0x0002d6    program     static C:\FPRC5RX\I2C.inc       
    CheckForDeleteRequest   0x0001e5    program     static C:\FPRC5RX\725.asm       
          CheckForPgmMode   0x00013c    program     static C:\FPRC5RX\725.asm       
  CheckForRadioAssignment   0x000752    program     static C:\FPRC5RX\RC5UTIL.asm   
           CheckIfPinExit   0x000599    program     static C:\FPRC5RX\RC5UTIL.asm   
    CheckIfPinIsInputOnly   0x000578    program     static C:\FPRC5RX\RC5UTIL.asm   
            CheckNextWord   0x0006be    program     static C:\FPRC5RX\RC5UTIL.asm   
           CheckPinDelete   0x0001f4    program     static C:\FPRC5RX\725.asm       
          ClearAllOutputs   0x000286    program     static C:\FPRC5RX\725.asm       
     ClearBitInOutputMask   0x00055e    program     static C:\FPRC5RX\RC5UTIL.asm   
        ClearPinFromTable   0x00066c    program     static C:\FPRC5RX\RC5UTIL.asm   
       ClearRadioChannels   0x000688    program     static C:\FPRC5RX\RC5UTIL.asm   
              ClearSystem   0x000298    program     static C:\FPRC5RX\725.asm       
   ClearTableOutputLevels   0x000726    program     static C:\FPRC5RX\RC5UTIL.asm   
                ColdStart   0x000000    program     static C:\FPRC5RX\725.asm       
                     Cont   0x000055    program     static C:\FPRC5RX\725.asm       
            DeactBiToggle   0x00070c    program     static C:\FPRC5RX\RC5UTIL.asm   
     DeactBiToggleDelayed   0x00070c    program     static C:\FPRC5RX\RC5UTIL.asm   
               DeactRadio   0x00070c    program     static C:\FPRC5RX\RC5UTIL.asm   
           DeactRadioNext   0x00070c    program     static C:\FPRC5RX\RC5UTIL.asm   
           DeactRadioPrev   0x00070c    program     static C:\FPRC5RX\RC5UTIL.asm   
            DeactStandard   0x00070a    program     static C:\FPRC5RX\RC5UTIL.asm   
              DeactToggle   0x00070c    program     static C:\FPRC5RX\RC5UTIL.asm   
     DeactivateOutputMask   0x000700    program     static C:\FPRC5RX\RC5UTIL.asm   
      DefineWriteNullCell   0x000666    program     static C:\FPRC5RX\RC5UTIL.asm   
           DeleteModeHome   0x0001ec    program     static C:\FPRC5RX\725.asm       
              EepromReadW   0x000327    program     static C:\FPRC5RX\PICEEPROM.inc 
         EepromSetAddress   0x000332    program     static C:\FPRC5RX\PICEEPROM.inc 
             EepromWriteW   0x000313    program     static C:\FPRC5RX\PICEEPROM.inc 
       FLASH_STORE_ADRESS   0x00095b    program     static C:\FPRC5RX\725.asm       
  Far_SetOutputsFromMasks   0x000800    program     static C:\FPRC5RX\RC5UTIL.asm   
               FatalError   0x0002b3    program     static C:\FPRC5RX\725.asm       
              FatalExists   0x0001d2    program     static C:\FPRC5RX\725.asm       
          FatalNoRoomLeft   0x0001cf    program     static C:\FPRC5RX\725.asm       
                FatalStop   0x0002b3    program     static C:\FPRC5RX\725.asm       
FilterHighBiToggleBootDelayPins   0x000271    program     static C:\FPRC5RX\725.asm       
FindCodeAndConfAndPinInTable   0x00062b    program     static C:\FPRC5RX\RC5UTIL.asm   
       FindModePinInTable   0x000648    program     static C:\FPRC5RX\RC5UTIL.asm   
           FirstRunSetups   0x00028c    program     static C:\FPRC5RX\725.asm       
         FlashAddressNext   0x000909    program     static C:\FPRC5RX\725.asm       
         FlashAddressPrev   0x00090e    program     static C:\FPRC5RX\725.asm       
                FlashRead   0x000914    program     static C:\FPRC5RX\725.asm       
      FlashSetAdrZeroPage   0x000900    program     static C:\FPRC5RX\725.asm       
               FlashWrite   0x00092e    program     static C:\FPRC5RX\725.asm       
          FlashWriteByteW   0x00092d    program     static C:\FPRC5RX\725.asm       
       FoundUnexpectedPin   0x00052c    program     static C:\FPRC5RX\RC5UTIL.asm   
            FromSonyAbort   0x000408    program     static C:\FPRC5RX\725.asm       
            GFCC_NextWord   0x00073d    program     static C:\FPRC5RX\RC5UTIL.asm   
       GetCodeAndConfExit   0x000751    program     static C:\FPRC5RX\RC5UTIL.asm   
GetCodeAndConfExitNotFound   0x000750    program     static C:\FPRC5RX\RC5UTIL.asm   
      GetFirstCodeAndConf   0x000739    program     static C:\FPRC5RX\RC5UTIL.asm   
GetFirstPinNumberFromIRCode   0x0006bb    program     static C:\FPRC5RX\RC5UTIL.asm   
       GetNextCodeAndConf   0x00074d    program     static C:\FPRC5RX\RC5UTIL.asm   
GetNextPinNumberFromIRCode   0x0006d4    program     static C:\FPRC5RX\RC5UTIL.asm   
                  I2C_MAW   0x0002e4    program     static C:\FPRC5RX\I2C.inc       
    I2C_MasterAsyncEngine   0x0002e4    program     static C:\FPRC5RX\I2C.inc       
      I2C_MasterAsyncInit   0x0002d6    program     static C:\FPRC5RX\I2C.inc       
              I2C_MawBusy   0x0002f7    program     static C:\FPRC5RX\I2C.inc       
              I2C_MawEnds   0x000312    program     static C:\FPRC5RX\I2C.inc       
         I2C_MawFinishing   0x00030c    program     static C:\FPRC5RX\I2C.inc       
              I2C_MawIdle   0x0002eb    program     static C:\FPRC5RX\I2C.inc       
           I2C_UpdateEnds   0x00010b    program     static C:\FPRC5RX\725.asm       
                IRPreIdle   0x000354    program     static C:\FPRC5RX\725.asm       
                 IR_Abort   0x000408    program     static C:\FPRC5RX\725.asm       
                  IR_Ends   0x000480    program     static C:\FPRC5RX\725.asm       
          IR_EndsSetTicks   0x000484    program     static C:\FPRC5RX\725.asm       
     IR_EndsSetTicksQuart   0x000483    program     static C:\FPRC5RX\725.asm       
                  IR_Idle   0x00035b    program     static C:\FPRC5RX\725.asm       
                  IR_Zero   0x000346    program     static C:\FPRC5RX\725.asm       
                  IR_mark   0x000342    program     static C:\FPRC5RX\725.asm       
            InitPanasonic   0x000444    program     static C:\FPRC5RX\725.asm       
     InitializeAllOutputs   0x000277    program     static C:\FPRC5RX\725.asm       
           InstallSilence   0x0003bc    program     static C:\FPRC5RX\725.asm       
              InstallSony   0x000389    program     static C:\FPRC5RX\725.asm       
                 IntrExit   0x000492    program     static C:\FPRC5RX\725.asm       
               IntrRutine   0x000337    program     static C:\FPRC5RX\725.asm       
              JustStarted   0x0003df    program     static C:\FPRC5RX\725.asm       
                      Led   0x000210    program     static C:\FPRC5RX\725.asm       
               LedDisable   0x00020c    program     static C:\FPRC5RX\725.asm       
                LedEnable   0x000203    program     static C:\FPRC5RX\725.asm       
               LedFlasher   0x0001d5    program     static C:\FPRC5RX\725.asm       
       LocateBiTogglePins   0x00022d    program     static C:\FPRC5RX\725.asm       
  LocateRadioNextPrevPins   0x000276    program     static C:\FPRC5RX\725.asm       
       LookForShortedPins   0x000499    program     static C:\FPRC5RX\RC5UTIL.asm   
   LookForShortedPinsExit   0x000550    program     static C:\FPRC5RX\RC5UTIL.asm   
              LoopAllFour   0x000230    program     static C:\FPRC5RX\725.asm       
                LoopedISR   0x000337    program     static C:\FPRC5RX\725.asm       
                 MainLoop   0x000097    program     static C:\FPRC5RX\725.asm       
             ModeConf2Int   0x0006da    program     static C:\FPRC5RX\RC5UTIL.asm   
             ModeInt2Conf   0x0006dc    program     static C:\FPRC5RX\RC5UTIL.asm   
             NewModeBlink   0x000193    program     static C:\FPRC5RX\725.asm       
             NextRadioPin   0x0006a3    program     static C:\FPRC5RX\RC5UTIL.asm   
               NoExtended   0x000135    program     static C:\FPRC5RX\725.asm       
                    Pana1   0x000453    program     static C:\FPRC5RX\725.asm       
                PanaAbort   0x000408    program     static C:\FPRC5RX\725.asm       
            PanaAbortTest   0x00046d    program     static C:\FPRC5RX\725.asm       
              PanaCarrier   0x00045b    program     static C:\FPRC5RX\725.asm       
                 PanaEnds   0x000486    program     static C:\FPRC5RX\725.asm       
              PanaInitAdj   0x000470    program     static C:\FPRC5RX\725.asm       
                 Pana_Adj   0x000477    program     static C:\FPRC5RX\725.asm       
                Pana_Init   0x00044e    program     static C:\FPRC5RX\725.asm       
            PeekTableCell   0x0005f0    program     static C:\FPRC5RX\RC5UTIL.asm   
       PeekTableCellIRLow   0x0005e3    program     static C:\FPRC5RX\RC5UTIL.asm   
         PeekTableCellPin   0x0005d5    program     static C:\FPRC5RX\RC5UTIL.asm   
            PokeTableCell   0x0005af    program     static C:\FPRC5RX\RC5UTIL.asm   
             PresetTimers   0x0003e7    program     static C:\FPRC5RX\725.asm       
             PrevRadioPin   0x0006af    program     static C:\FPRC5RX\RC5UTIL.asm   
       ProgrammingRequest   0x000186    program     static C:\FPRC5RX\725.asm       
                RC5_Abort   0x000408    program     static C:\FPRC5RX\725.asm       
         RC5_CheckSilence   0x0003c2    program     static C:\FPRC5RX\725.asm       
             RC5_DeadTime   0x0003ee    program     static C:\FPRC5RX\725.asm       
                 RC5_Ends   0x00048b    program     static C:\FPRC5RX\725.asm       
                RC5_First   0x000384    program     static C:\FPRC5RX\725.asm       
                 RC5_Half   0x000392    program     static C:\FPRC5RX\725.asm       
                 RC5_Last   0x000398    program     static C:\FPRC5RX\725.asm       
               RT_RC5_Clr   0x0000b3    program     static C:\FPRC5RX\725.asm       
              RT_RC5_Ends   0x0000b4    program     static C:\FPRC5RX\725.asm       
           RT_TimeoutTest   0x0000b4    program     static C:\FPRC5RX\725.asm       
            RT_no_timeout   0x0000cf    program     static C:\FPRC5RX\725.asm       
                    Radio   0x0006ee    program     static C:\FPRC5RX\RC5UTIL.asm   
                RadioNext   0x0006fb    program     static C:\FPRC5RX\RC5UTIL.asm   
                RadioPrev   0x0006fc    program     static C:\FPRC5RX\RC5UTIL.asm   
             ReadModeConf   0x0006d9    program     static C:\FPRC5RX\RC5UTIL.asm   
      ResetSerialTestMask   0x0001fb    program     static C:\FPRC5RX\725.asm       
               ResetTable   0x00065b    program     static C:\FPRC5RX\RC5UTIL.asm   
   RestoreOutputLevelMask   0x00072c    program     static C:\FPRC5RX\RC5UTIL.asm   
   ReverseBitInOutputMask   0x00056b    program     static C:\FPRC5RX\RC5UTIL.asm   
                  RunMode   0x000147    program     static C:\FPRC5RX\725.asm       
              RunModeEnds   0x000170    program     static C:\FPRC5RX\725.asm       
                  RunTime   0x00008d    program     static C:\FPRC5RX\725.asm       
  SaveCurrentOutputLevels   0x00070d    program     static C:\FPRC5RX\RC5UTIL.asm   
              SaveNewData   0x0003e3    program     static C:\FPRC5RX\725.asm       
       SaveNewSerialState   0x000102    program     static C:\FPRC5RX\725.asm       
             SerLowIsHigh   0x0000fd    program     static C:\FPRC5RX\725.asm       
          SetBiToggleEnds   0x00086f    program     static C:\FPRC5RX\RC5UTIL.asm   
       SetBitInOutputMask   0x000551    program     static C:\FPRC5RX\RC5UTIL.asm   
      SetOutputsFromMasks   0x00076c    program     static C:\FPRC5RX\RC5UTIL.asm   
     SetOutputsNormalMode   0x000853    program     static C:\FPRC5RX\RC5UTIL.asm   
          SetTablePointer   0x0005aa    program     static C:\FPRC5RX\RC5UTIL.asm   
    SignalProgrammingMode   0x000141    program     static C:\FPRC5RX\725.asm       
             SilenceAbort   0x000408    program     static C:\FPRC5RX\725.asm       
                 SkipBit1   0x000805    program     static C:\FPRC5RX\RC5UTIL.asm   
                 SkipBit2   0x00080a    program     static C:\FPRC5RX\RC5UTIL.asm   
                SonyAbort   0x000412    program     static C:\FPRC5RX\725.asm       
                 SonyHigh   0x000433    program     static C:\FPRC5RX\725.asm       
                 SonyInit   0x000415    program     static C:\FPRC5RX\725.asm       
           SonyRxComplete   0x000441    program     static C:\FPRC5RX\725.asm       
              SonyStartOK   0x000426    program     static C:\FPRC5RX\725.asm       
                   Sony_1   0x00041f    program     static C:\FPRC5RX\725.asm       
                   Sony_2   0x000429    program     static C:\FPRC5RX\725.asm       
                   Sony_3   0x000438    program     static C:\FPRC5RX\725.asm       
                Sony_Ends   0x000489    program     static C:\FPRC5RX\725.asm       
                 Standard   0x0006e8    program     static C:\FPRC5RX\RC5UTIL.asm   
                    TEWPC   0x0006fe    program     static C:\FPRC5RX\RC5UTIL.asm   
               T_RC5_Ends   0x0000c4    program     static C:\FPRC5RX\725.asm       
         TestForBootDelay   0x000259    program     static C:\FPRC5RX\725.asm       
          TestIfCellValid   0x00067c    program     static C:\FPRC5RX\RC5UTIL.asm   
            TimedCodeEnds   0x00017b    program     static C:\FPRC5RX\725.asm       
                   Toggle   0x0006eb    program     static C:\FPRC5RX\RC5UTIL.asm   
                 TypeEnds   0x0006ff    program     static C:\FPRC5RX\RC5UTIL.asm   
    TypeEndsWithPrescaler   0x0006fd    program     static C:\FPRC5RX\RC5UTIL.asm   
              UserPgmEnds   0x000170    program     static C:\FPRC5RX\725.asm       
           WaitForRelease   0x00017c    program     static C:\FPRC5RX\725.asm       
           WaitForRequest   0x000181    program     static C:\FPRC5RX\725.asm       
 WaitingForSwitchDebounce   0x00016a    program     static C:\FPRC5RX\725.asm       
          _119__di_fail__   0x0005b0    program     static C:\FPRC5RX\RC5UTIL.asm   
          _131__di_fail__   0x0005d7    program     static C:\FPRC5RX\RC5UTIL.asm   
          _135__di_fail__   0x0005e4    program     static C:\FPRC5RX\RC5UTIL.asm   
          _139__di_fail__   0x0005f1    program     static C:\FPRC5RX\RC5UTIL.asm   
          _143__di_fail__   0x0005fc    program     static C:\FPRC5RX\RC5UTIL.asm   
          _149__di_fail__   0x00060e    program     static C:\FPRC5RX\RC5UTIL.asm   
          _155__di_fail__   0x00071e    program     static C:\FPRC5RX\RC5UTIL.asm   
           _29__di_fail__   0x0001e7    program     static C:\FPRC5RX\725.asm       
           _56__di_fail__   0x00028c    program     static C:\FPRC5RX\725.asm       
                  _57lop1   0x00029f    program     static C:\FPRC5RX\725.asm       
                  _57lop2   0x0002a1    program     static C:\FPRC5RX\725.asm       
                  _57lop3   0x00029d    program     static C:\FPRC5RX\725.asm       
              _5next_cell   0x000059    program     static C:\FPRC5RX\725.asm       
           _60__di_fail__   0x0002b3    program     static C:\FPRC5RX\725.asm       
         _75eep_not_ready   0x000322    program     static C:\FPRC5RX\PICEEPROM.inc 
                  _n_exit   0x0006ae    program     static C:\FPRC5RX\RC5UTIL.asm   
            _next_radio_p   0x0006a5    program     static C:\FPRC5RX\RC5UTIL.asm   
                  _not@12   0x000580    program     static C:\FPRC5RX\RC5UTIL.asm   
                  _not@13   0x000587    program     static C:\FPRC5RX\RC5UTIL.asm   
                  _not@14   0x00058e    program     static C:\FPRC5RX\RC5UTIL.asm   
                  _not@15   0x000595    program     static C:\FPRC5RX\RC5UTIL.asm   
                  _p_exit   0x0006ba    program     static C:\FPRC5RX\RC5UTIL.asm   
            _prev_radio_p   0x0006b1    program     static C:\FPRC5RX\RC5UTIL.asm   
                  add_pin   0x0000a3    program     static C:\FPRC5RX\725.asm       
             anotherblink   0x0002bb    program     static C:\FPRC5RX\725.asm       
  bitoggle_boot_delay_pin   0x000160    program     static C:\FPRC5RX\725.asm       
             bitoggle_pin   0x000160    program     static C:\FPRC5RX\725.asm       
              code_is_new   0x0003d4    program     static C:\FPRC5RX\725.asm       
            code_req_wait   0x0001a6    program     static C:\FPRC5RX\725.asm       
               crc_active   0x00069d    program     static C:\FPRC5RX\RC5UTIL.asm   
                 crc_next   0x00069f    program     static C:\FPRC5RX\RC5UTIL.asm   
              define_pana   0x000400    program     static C:\FPRC5RX\725.asm       
               define_rc5   0x0003f6    program     static C:\FPRC5RX\725.asm       
              define_sony   0x0003fb    program     static C:\FPRC5RX\725.asm       
                   dsasda   0x000117    program     static C:\FPRC5RX\725.asm       
            etst_next_wod   0x00062e    program     static C:\FPRC5RX\RC5UTIL.asm   
            etst_next_wor   0x00065f    program     static C:\FPRC5RX\RC5UTIL.asm   
           etst_next_word   0x00061d    program     static C:\FPRC5RX\RC5UTIL.asm   
            exit_bitoggle   0x00054e    program     static C:\FPRC5RX\RC5UTIL.asm   
            fatal_forever   0x0002b9    program     static C:\FPRC5RX\725.asm       
               fatal_loop   0x0002b3    program     static C:\FPRC5RX\725.asm       
             fcc_not_this   0x000643    program     static C:\FPRC5RX\RC5UTIL.asm   
                 first_on   0x00039e    program     static C:\FPRC5RX\725.asm       
               flash_loop   0x0001d6    program     static C:\FPRC5RX\725.asm       
                fmpt_exit   0x00065a    program     static C:\FPRC5RX\RC5UTIL.asm   
                fmpt_next   0x00064c    program     static C:\FPRC5RX\RC5UTIL.asm   
            fmpt_not_this   0x000656    program     static C:\FPRC5RX\RC5UTIL.asm   
                    forev   0x0001f1    program     static C:\FPRC5RX\725.asm       
               got_a_code   0x0001b5    program     static C:\FPRC5RX\725.asm       
                 has_data   0x000686    program     static C:\FPRC5RX\RC5UTIL.asm   
             install_idle   0x000404    program     static C:\FPRC5RX\725.asm       
              ir_dis_loop   0x0000bd    program     static C:\FPRC5RX\725.asm       
                led_close   0x00022a    program     static C:\FPRC5RX\725.asm       
                 led_high   0x000222    program     static C:\FPRC5RX\725.asm       
          led_pulse_again   0x000197    program     static C:\FPRC5RX\725.asm       
          led_signal_ends   0x000340    program     static C:\FPRC5RX\725.asm       
             level_is_low   0x0003c4    program     static C:\FPRC5RX\725.asm       
                 level_ok   0x0003a1    program     static C:\FPRC5RX\725.asm       
                load_pana   0x000466    program     static C:\FPRC5RX\725.asm       
                  msDelay   0x00029c    program     static C:\FPRC5RX\725.asm       
               next_radio   0x00068b    program     static C:\FPRC5RX\RC5UTIL.asm   
                no_12_set   0x00085a    program     static C:\FPRC5RX\RC5UTIL.asm   
                no_13_set   0x000861    program     static C:\FPRC5RX\RC5UTIL.asm   
                no_14_set   0x000868    program     static C:\FPRC5RX\RC5UTIL.asm   
                no_15_set   0x00086f    program     static C:\FPRC5RX\RC5UTIL.asm   
                     no_b   0x000362    program     static C:\FPRC5RX\725.asm       
               no_delayed   0x000121    program     static C:\FPRC5RX\725.asm       
                no_double   0x000461    program     static C:\FPRC5RX\725.asm       
               no_pending   0x000379    program     static C:\FPRC5RX\725.asm       
                 no_radio   0x00017b    program     static C:\FPRC5RX\725.asm       
          no_save_at_exit   0x0000ce    program     static C:\FPRC5RX\725.asm       
         no_save_at_start   0x0000b3    program     static C:\FPRC5RX\725.asm       
             no_selection   0x000181    program     static C:\FPRC5RX\725.asm       
              no_wrap_yet   0x0000db    program     static C:\FPRC5RX\725.asm       
                   not@12   0x000536    program     static C:\FPRC5RX\RC5UTIL.asm   
                   not@13   0x00053d    program     static C:\FPRC5RX\RC5UTIL.asm   
                   not@14   0x000544    program     static C:\FPRC5RX\RC5UTIL.asm   
                   not@15   0x00054b    program     static C:\FPRC5RX\RC5UTIL.asm   
               not_enough   0x0003e3    program     static C:\FPRC5RX\725.asm       
            not_null_cell   0x000626    program     static C:\FPRC5RX\RC5UTIL.asm   
                not_thisr   0x000679    program     static C:\FPRC5RX\RC5UTIL.asm   
               outta_here   0x0006d8    program     static C:\FPRC5RX\RC5UTIL.asm   
             pin_is_input   0x000596    program     static C:\FPRC5RX\RC5UTIL.asm   
            pin_is_output   0x000598    program     static C:\FPRC5RX\RC5UTIL.asm   
           radio_next_pin   0x000160    program     static C:\FPRC5RX\725.asm       
                radio_pin   0x000160    program     static C:\FPRC5RX\725.asm       
           radio_prev_pin   0x000160    program     static C:\FPRC5RX\725.asm       
             rc5_next_bit   0x0003b3    program     static C:\FPRC5RX\725.asm       
         rc5_next_silence   0x0003ec    program     static C:\FPRC5RX\725.asm       
           rclr_next_word   0x000670    program     static C:\FPRC5RX\RC5UTIL.asm   
              reload_wait   0x000167    program     static C:\FPRC5RX\725.asm       
           remap_bitoggle   0x00054c    program     static C:\FPRC5RX\RC5UTIL.asm   
           rtol_load_next   0x000731    program     static C:\FPRC5RX\RC5UTIL.asm   
                run_again   0x00014d    program     static C:\FPRC5RX\725.asm       
             save_at_exit   0x0000ce    program     static C:\FPRC5RX\725.asm       
                scol_loop   0x00070f    program     static C:\FPRC5RX\RC5UTIL.asm   
               setup_next   0x000302    program     static C:\FPRC5RX\I2C.inc       
               setup_stop   0x000304    program     static C:\FPRC5RX\I2C.inc       
              shift_again   0x0005a1    program     static C:\FPRC5RX\RC5UTIL.asm   
           still_selected   0x00017c    program     static C:\FPRC5RX\725.asm       
             test_timeout   0x00036f    program     static C:\FPRC5RX\725.asm       
            this_is_equal   0x000723    program     static C:\FPRC5RX\RC5UTIL.asm   



                              Symbols - Sorted by Address
                     Name    Address   Location    Storage File                     
                ---------  ---------  ---------  --------- ---------                
                ColdStart   0x000000    program     static C:\FPRC5RX\725.asm       
                     Cont   0x000055    program     static C:\FPRC5RX\725.asm       
              _5next_cell   0x000059    program     static C:\FPRC5RX\725.asm       
                  RunTime   0x00008d    program     static C:\FPRC5RX\725.asm       
                 MainLoop   0x000097    program     static C:\FPRC5RX\725.asm       
                  add_pin   0x0000a3    program     static C:\FPRC5RX\725.asm       
               RT_RC5_Clr   0x0000b3    program     static C:\FPRC5RX\725.asm       
         no_save_at_start   0x0000b3    program     static C:\FPRC5RX\725.asm       
              RT_RC5_Ends   0x0000b4    program     static C:\FPRC5RX\725.asm       
           RT_TimeoutTest   0x0000b4    program     static C:\FPRC5RX\725.asm       
              ir_dis_loop   0x0000bd    program     static C:\FPRC5RX\725.asm       
               T_RC5_Ends   0x0000c4    program     static C:\FPRC5RX\725.asm       
          no_save_at_exit   0x0000ce    program     static C:\FPRC5RX\725.asm       
               AcknTimout   0x0000ce    program     static C:\FPRC5RX\725.asm       
             save_at_exit   0x0000ce    program     static C:\FPRC5RX\725.asm       
            RT_no_timeout   0x0000cf    program     static C:\FPRC5RX\725.asm       
              no_wrap_yet   0x0000db    program     static C:\FPRC5RX\725.asm       
             SerLowIsHigh   0x0000fd    program     static C:\FPRC5RX\725.asm       
       SaveNewSerialState   0x000102    program     static C:\FPRC5RX\725.asm       
           I2C_UpdateEnds   0x00010b    program     static C:\FPRC5RX\725.asm       
                   dsasda   0x000117    program     static C:\FPRC5RX\725.asm       
               no_delayed   0x000121    program     static C:\FPRC5RX\725.asm       
                  BT_done   0x00012c    program     static C:\FPRC5RX\725.asm       
               NoExtended   0x000135    program     static C:\FPRC5RX\725.asm       
          CheckForPgmMode   0x00013c    program     static C:\FPRC5RX\725.asm       
    SignalProgrammingMode   0x000141    program     static C:\FPRC5RX\725.asm       
                  RunMode   0x000147    program     static C:\FPRC5RX\725.asm       
                run_again   0x00014d    program     static C:\FPRC5RX\725.asm       
                radio_pin   0x000160    program     static C:\FPRC5RX\725.asm       
           radio_next_pin   0x000160    program     static C:\FPRC5RX\725.asm       
           radio_prev_pin   0x000160    program     static C:\FPRC5RX\725.asm       
  bitoggle_boot_delay_pin   0x000160    program     static C:\FPRC5RX\725.asm       
             bitoggle_pin   0x000160    program     static C:\FPRC5RX\725.asm       
              reload_wait   0x000167    program     static C:\FPRC5RX\725.asm       
 WaitingForSwitchDebounce   0x00016a    program     static C:\FPRC5RX\725.asm       
              RunModeEnds   0x000170    program     static C:\FPRC5RX\725.asm       
              UserPgmEnds   0x000170    program     static C:\FPRC5RX\725.asm       
                 no_radio   0x00017b    program     static C:\FPRC5RX\725.asm       
            TimedCodeEnds   0x00017b    program     static C:\FPRC5RX\725.asm       
           still_selected   0x00017c    program     static C:\FPRC5RX\725.asm       
           WaitForRelease   0x00017c    program     static C:\FPRC5RX\725.asm       
             no_selection   0x000181    program     static C:\FPRC5RX\725.asm       
           WaitForRequest   0x000181    program     static C:\FPRC5RX\725.asm       
       ProgrammingRequest   0x000186    program     static C:\FPRC5RX\725.asm       
             NewModeBlink   0x000193    program     static C:\FPRC5RX\725.asm       
          led_pulse_again   0x000197    program     static C:\FPRC5RX\725.asm       
            code_req_wait   0x0001a6    program     static C:\FPRC5RX\725.asm       
               got_a_code   0x0001b5    program     static C:\FPRC5RX\725.asm       
          FatalNoRoomLeft   0x0001cf    program     static C:\FPRC5RX\725.asm       
              FatalExists   0x0001d2    program     static C:\FPRC5RX\725.asm       
               LedFlasher   0x0001d5    program     static C:\FPRC5RX\725.asm       
               flash_loop   0x0001d6    program     static C:\FPRC5RX\725.asm       
    CheckForDeleteRequest   0x0001e5    program     static C:\FPRC5RX\725.asm       
           _29__di_fail__   0x0001e7    program     static C:\FPRC5RX\725.asm       
           DeleteModeHome   0x0001ec    program     static C:\FPRC5RX\725.asm       
                    forev   0x0001f1    program     static C:\FPRC5RX\725.asm       
           CheckPinDelete   0x0001f4    program     static C:\FPRC5RX\725.asm       
      ResetSerialTestMask   0x0001fb    program     static C:\FPRC5RX\725.asm       
                LedEnable   0x000203    program     static C:\FPRC5RX\725.asm       
               LedDisable   0x00020c    program     static C:\FPRC5RX\725.asm       
                      Led   0x000210    program     static C:\FPRC5RX\725.asm       
                 led_high   0x000222    program     static C:\FPRC5RX\725.asm       
                led_close   0x00022a    program     static C:\FPRC5RX\725.asm       
       LocateBiTogglePins   0x00022d    program     static C:\FPRC5RX\725.asm       
              LoopAllFour   0x000230    program     static C:\FPRC5RX\725.asm       
             BiToggleLoop   0x000233    program     static C:\FPRC5RX\725.asm       
             BiToggleJump   0x000239    program     static C:\FPRC5RX\725.asm       
            BiTogglePin12   0x000241    program     static C:\FPRC5RX\725.asm       
            BiTogglePin11   0x000247    program     static C:\FPRC5RX\725.asm       
            BiTogglePin10   0x00024d    program     static C:\FPRC5RX\725.asm       
             BiTogglePin9   0x000253    program     static C:\FPRC5RX\725.asm       
         TestForBootDelay   0x000259    program     static C:\FPRC5RX\725.asm       
            BiToggleJump2   0x00025c    program     static C:\FPRC5RX\725.asm       
        BiToggleJumpEnds2   0x000264    program     static C:\FPRC5RX\725.asm       
   BiToggleBootDelayPin12   0x000264    program     static C:\FPRC5RX\725.asm       
   BiToggleBootDelayPin11   0x000266    program     static C:\FPRC5RX\725.asm       
   BiToggleBootDelayPin10   0x000268    program     static C:\FPRC5RX\725.asm       
    BiToggleBootDelayPin9   0x00026a    program     static C:\FPRC5RX\725.asm       
         BiToggleNextPass   0x00026c    program     static C:\FPRC5RX\725.asm       
       BiToggleSearchEnds   0x00026e    program     static C:\FPRC5RX\725.asm       
FilterHighBiToggleBootDelayPins   0x000271    program     static C:\FPRC5RX\725.asm       
  LocateRadioNextPrevPins   0x000276    program     static C:\FPRC5RX\725.asm       
     InitializeAllOutputs   0x000277    program     static C:\FPRC5RX\725.asm       
          ClearAllOutputs   0x000286    program     static C:\FPRC5RX\725.asm       
           _56__di_fail__   0x00028c    program     static C:\FPRC5RX\725.asm       
           FirstRunSetups   0x00028c    program     static C:\FPRC5RX\725.asm       
              ClearSystem   0x000298    program     static C:\FPRC5RX\725.asm       
                  msDelay   0x00029c    program     static C:\FPRC5RX\725.asm       
                  _57lop3   0x00029d    program     static C:\FPRC5RX\725.asm       
                  _57lop1   0x00029f    program     static C:\FPRC5RX\725.asm       
                  _57lop2   0x0002a1    program     static C:\FPRC5RX\725.asm       
               fatal_loop   0x0002b3    program     static C:\FPRC5RX\725.asm       
                FatalStop   0x0002b3    program     static C:\FPRC5RX\725.asm       
           _60__di_fail__   0x0002b3    program     static C:\FPRC5RX\725.asm       
               FatalError   0x0002b3    program     static C:\FPRC5RX\725.asm       
            fatal_forever   0x0002b9    program     static C:\FPRC5RX\725.asm       
             anotherblink   0x0002bb    program     static C:\FPRC5RX\725.asm       
      CODE_SIZE_I2C_START   0x0002d6    program     static C:\FPRC5RX\I2C.inc       
      I2C_MasterAsyncInit   0x0002d6    program     static C:\FPRC5RX\I2C.inc       
    I2C_MasterAsyncEngine   0x0002e4    program     static C:\FPRC5RX\I2C.inc       
                  I2C_MAW   0x0002e4    program     static C:\FPRC5RX\I2C.inc       
              I2C_MawIdle   0x0002eb    program     static C:\FPRC5RX\I2C.inc       
              I2C_MawBusy   0x0002f7    program     static C:\FPRC5RX\I2C.inc       
               setup_next   0x000302    program     static C:\FPRC5RX\I2C.inc       
               setup_stop   0x000304    program     static C:\FPRC5RX\I2C.inc       
         I2C_MawFinishing   0x00030c    program     static C:\FPRC5RX\I2C.inc       
              I2C_MawEnds   0x000312    program     static C:\FPRC5RX\I2C.inc       
             EepromWriteW   0x000313    program     static C:\FPRC5RX\PICEEPROM.inc 
         _75eep_not_ready   0x000322    program     static C:\FPRC5RX\PICEEPROM.inc 
              EepromReadW   0x000327    program     static C:\FPRC5RX\PICEEPROM.inc 
         EepromSetAddress   0x000332    program     static C:\FPRC5RX\PICEEPROM.inc 
                LoopedISR   0x000337    program     static C:\FPRC5RX\725.asm       
               IntrRutine   0x000337    program     static C:\FPRC5RX\725.asm       
          led_signal_ends   0x000340    program     static C:\FPRC5RX\725.asm       
                  IR_mark   0x000342    program     static C:\FPRC5RX\725.asm       
                  IR_Zero   0x000346    program     static C:\FPRC5RX\725.asm       
                IRPreIdle   0x000354    program     static C:\FPRC5RX\725.asm       
                  IR_Idle   0x00035b    program     static C:\FPRC5RX\725.asm       
                     no_b   0x000362    program     static C:\FPRC5RX\725.asm       
             test_timeout   0x00036f    program     static C:\FPRC5RX\725.asm       
               no_pending   0x000379    program     static C:\FPRC5RX\725.asm       
                RC5_First   0x000384    program     static C:\FPRC5RX\725.asm       
              InstallSony   0x000389    program     static C:\FPRC5RX\725.asm       
                 RC5_Half   0x000392    program     static C:\FPRC5RX\725.asm       
                 RC5_Last   0x000398    program     static C:\FPRC5RX\725.asm       
                 first_on   0x00039e    program     static C:\FPRC5RX\725.asm       
                 level_ok   0x0003a1    program     static C:\FPRC5RX\725.asm       
             rc5_next_bit   0x0003b3    program     static C:\FPRC5RX\725.asm       
           InstallSilence   0x0003bc    program     static C:\FPRC5RX\725.asm       
         RC5_CheckSilence   0x0003c2    program     static C:\FPRC5RX\725.asm       
             level_is_low   0x0003c4    program     static C:\FPRC5RX\725.asm       
              code_is_new   0x0003d4    program     static C:\FPRC5RX\725.asm       
              JustStarted   0x0003df    program     static C:\FPRC5RX\725.asm       
              SaveNewData   0x0003e3    program     static C:\FPRC5RX\725.asm       
               not_enough   0x0003e3    program     static C:\FPRC5RX\725.asm       
             PresetTimers   0x0003e7    program     static C:\FPRC5RX\725.asm       
         rc5_next_silence   0x0003ec    program     static C:\FPRC5RX\725.asm       
             RC5_DeadTime   0x0003ee    program     static C:\FPRC5RX\725.asm       
               define_rc5   0x0003f6    program     static C:\FPRC5RX\725.asm       
              define_sony   0x0003fb    program     static C:\FPRC5RX\725.asm       
              define_pana   0x000400    program     static C:\FPRC5RX\725.asm       
             install_idle   0x000404    program     static C:\FPRC5RX\725.asm       
                 IR_Abort   0x000408    program     static C:\FPRC5RX\725.asm       
            FromSonyAbort   0x000408    program     static C:\FPRC5RX\725.asm       
             SilenceAbort   0x000408    program     static C:\FPRC5RX\725.asm       
                PanaAbort   0x000408    program     static C:\FPRC5RX\725.asm       
                RC5_Abort   0x000408    program     static C:\FPRC5RX\725.asm       
                SonyAbort   0x000412    program     static C:\FPRC5RX\725.asm       
                 SonyInit   0x000415    program     static C:\FPRC5RX\725.asm       
                   Sony_1   0x00041f    program     static C:\FPRC5RX\725.asm       
              SonyStartOK   0x000426    program     static C:\FPRC5RX\725.asm       
                   Sony_2   0x000429    program     static C:\FPRC5RX\725.asm       
                 SonyHigh   0x000433    program     static C:\FPRC5RX\725.asm       
                   Sony_3   0x000438    program     static C:\FPRC5RX\725.asm       
           SonyRxComplete   0x000441    program     static C:\FPRC5RX\725.asm       
            InitPanasonic   0x000444    program     static C:\FPRC5RX\725.asm       
                Pana_Init   0x00044e    program     static C:\FPRC5RX\725.asm       
                    Pana1   0x000453    program     static C:\FPRC5RX\725.asm       
              PanaCarrier   0x00045b    program     static C:\FPRC5RX\725.asm       
                no_double   0x000461    program     static C:\FPRC5RX\725.asm       
                load_pana   0x000466    program     static C:\FPRC5RX\725.asm       
            PanaAbortTest   0x00046d    program     static C:\FPRC5RX\725.asm       
              PanaInitAdj   0x000470    program     static C:\FPRC5RX\725.asm       
                 Pana_Adj   0x000477    program     static C:\FPRC5RX\725.asm       
                  IR_Ends   0x000480    program     static C:\FPRC5RX\725.asm       
     IR_EndsSetTicksQuart   0x000483    program     static C:\FPRC5RX\725.asm       
          IR_EndsSetTicks   0x000484    program     static C:\FPRC5RX\725.asm       
                 PanaEnds   0x000486    program     static C:\FPRC5RX\725.asm       
                Sony_Ends   0x000489    program     static C:\FPRC5RX\725.asm       
                 RC5_Ends   0x00048b    program     static C:\FPRC5RX\725.asm       
                 IntrExit   0x000492    program     static C:\FPRC5RX\725.asm       
       LookForShortedPins   0x000499    program     static C:\FPRC5RX\RC5UTIL.asm   
       FoundUnexpectedPin   0x00052c    program     static C:\FPRC5RX\RC5UTIL.asm   
                   not@12   0x000536    program     static C:\FPRC5RX\RC5UTIL.asm   
                   not@13   0x00053d    program     static C:\FPRC5RX\RC5UTIL.asm   
                   not@14   0x000544    program     static C:\FPRC5RX\RC5UTIL.asm   
                   not@15   0x00054b    program     static C:\FPRC5RX\RC5UTIL.asm   
           remap_bitoggle   0x00054c    program     static C:\FPRC5RX\RC5UTIL.asm   
            exit_bitoggle   0x00054e    program     static C:\FPRC5RX\RC5UTIL.asm   
             BitoggleEnds   0x00054f    program     static C:\FPRC5RX\RC5UTIL.asm   
   LookForShortedPinsExit   0x000550    program     static C:\FPRC5RX\RC5UTIL.asm   
       SetBitInOutputMask   0x000551    program     static C:\FPRC5RX\RC5UTIL.asm   
     ClearBitInOutputMask   0x00055e    program     static C:\FPRC5RX\RC5UTIL.asm   
   ReverseBitInOutputMask   0x00056b    program     static C:\FPRC5RX\RC5UTIL.asm   
    CheckIfPinIsInputOnly   0x000578    program     static C:\FPRC5RX\RC5UTIL.asm   
                  _not@12   0x000580    program     static C:\FPRC5RX\RC5UTIL.asm   
                  _not@13   0x000587    program     static C:\FPRC5RX\RC5UTIL.asm   
                  _not@14   0x00058e    program     static C:\FPRC5RX\RC5UTIL.asm   
                  _not@15   0x000595    program     static C:\FPRC5RX\RC5UTIL.asm   
             pin_is_input   0x000596    program     static C:\FPRC5RX\RC5UTIL.asm   
            pin_is_output   0x000598    program     static C:\FPRC5RX\RC5UTIL.asm   
           CheckIfPinExit   0x000599    program     static C:\FPRC5RX\RC5UTIL.asm   
                BitToMask   0x00059b    program     static C:\FPRC5RX\RC5UTIL.asm   
              shift_again   0x0005a1    program     static C:\FPRC5RX\RC5UTIL.asm   
          SetTablePointer   0x0005aa    program     static C:\FPRC5RX\RC5UTIL.asm   
            PokeTableCell   0x0005af    program     static C:\FPRC5RX\RC5UTIL.asm   
          _119__di_fail__   0x0005b0    program     static C:\FPRC5RX\RC5UTIL.asm   
         PeekTableCellPin   0x0005d5    program     static C:\FPRC5RX\RC5UTIL.asm   
          _131__di_fail__   0x0005d7    program     static C:\FPRC5RX\RC5UTIL.asm   
       PeekTableCellIRLow   0x0005e3    program     static C:\FPRC5RX\RC5UTIL.asm   
          _135__di_fail__   0x0005e4    program     static C:\FPRC5RX\RC5UTIL.asm   
            PeekTableCell   0x0005f0    program     static C:\FPRC5RX\RC5UTIL.asm   
          _139__di_fail__   0x0005f1    program     static C:\FPRC5RX\RC5UTIL.asm   
          _143__di_fail__   0x0005fc    program     static C:\FPRC5RX\RC5UTIL.asm   
          _149__di_fail__   0x00060e    program     static C:\FPRC5RX\RC5UTIL.asm   
        AddPinDataToTable   0x00061a    program     static C:\FPRC5RX\RC5UTIL.asm   
           etst_next_word   0x00061d    program     static C:\FPRC5RX\RC5UTIL.asm   
            not_null_cell   0x000626    program     static C:\FPRC5RX\RC5UTIL.asm   
FindCodeAndConfAndPinInTable   0x00062b    program     static C:\FPRC5RX\RC5UTIL.asm   
            etst_next_wod   0x00062e    program     static C:\FPRC5RX\RC5UTIL.asm   
             fcc_not_this   0x000643    program     static C:\FPRC5RX\RC5UTIL.asm   
       FindModePinInTable   0x000648    program     static C:\FPRC5RX\RC5UTIL.asm   
                fmpt_next   0x00064c    program     static C:\FPRC5RX\RC5UTIL.asm   
            fmpt_not_this   0x000656    program     static C:\FPRC5RX\RC5UTIL.asm   
                fmpt_exit   0x00065a    program     static C:\FPRC5RX\RC5UTIL.asm   
               ResetTable   0x00065b    program     static C:\FPRC5RX\RC5UTIL.asm   
            etst_next_wor   0x00065f    program     static C:\FPRC5RX\RC5UTIL.asm   
      DefineWriteNullCell   0x000666    program     static C:\FPRC5RX\RC5UTIL.asm   
        ClearPinFromTable   0x00066c    program     static C:\FPRC5RX\RC5UTIL.asm   
           rclr_next_word   0x000670    program     static C:\FPRC5RX\RC5UTIL.asm   
                not_thisr   0x000679    program     static C:\FPRC5RX\RC5UTIL.asm   
          TestIfCellValid   0x00067c    program     static C:\FPRC5RX\RC5UTIL.asm   
                 has_data   0x000686    program     static C:\FPRC5RX\RC5UTIL.asm   
       ClearRadioChannels   0x000688    program     static C:\FPRC5RX\RC5UTIL.asm   
               next_radio   0x00068b    program     static C:\FPRC5RX\RC5UTIL.asm   
               crc_active   0x00069d    program     static C:\FPRC5RX\RC5UTIL.asm   
                 crc_next   0x00069f    program     static C:\FPRC5RX\RC5UTIL.asm   
             NextRadioPin   0x0006a3    program     static C:\FPRC5RX\RC5UTIL.asm   
            _next_radio_p   0x0006a5    program     static C:\FPRC5RX\RC5UTIL.asm   
                  _n_exit   0x0006ae    program     static C:\FPRC5RX\RC5UTIL.asm   
             PrevRadioPin   0x0006af    program     static C:\FPRC5RX\RC5UTIL.asm   
            _prev_radio_p   0x0006b1    program     static C:\FPRC5RX\RC5UTIL.asm   
                  _p_exit   0x0006ba    program     static C:\FPRC5RX\RC5UTIL.asm   
GetFirstPinNumberFromIRCode   0x0006bb    program     static C:\FPRC5RX\RC5UTIL.asm   
            CheckNextWord   0x0006be    program     static C:\FPRC5RX\RC5UTIL.asm   
GetNextPinNumberFromIRCode   0x0006d4    program     static C:\FPRC5RX\RC5UTIL.asm   
               outta_here   0x0006d8    program     static C:\FPRC5RX\RC5UTIL.asm   
             ReadModeConf   0x0006d9    program     static C:\FPRC5RX\RC5UTIL.asm   
             ModeConf2Int   0x0006da    program     static C:\FPRC5RX\RC5UTIL.asm   
             ModeInt2Conf   0x0006dc    program     static C:\FPRC5RX\RC5UTIL.asm   
       ActivateOutputMask   0x0006de    program     static C:\FPRC5RX\RC5UTIL.asm   
                 Standard   0x0006e8    program     static C:\FPRC5RX\RC5UTIL.asm   
                   Toggle   0x0006eb    program     static C:\FPRC5RX\RC5UTIL.asm   
                    Radio   0x0006ee    program     static C:\FPRC5RX\RC5UTIL.asm   
                 BiToggle   0x0006f3    program     static C:\FPRC5RX\RC5UTIL.asm   
          BiToggleDelayed   0x0006f6    program     static C:\FPRC5RX\RC5UTIL.asm   
                RadioNext   0x0006fb    program     static C:\FPRC5RX\RC5UTIL.asm   
                RadioPrev   0x0006fc    program     static C:\FPRC5RX\RC5UTIL.asm   
    TypeEndsWithPrescaler   0x0006fd    program     static C:\FPRC5RX\RC5UTIL.asm   
                    TEWPC   0x0006fe    program     static C:\FPRC5RX\RC5UTIL.asm   
                 TypeEnds   0x0006ff    program     static C:\FPRC5RX\RC5UTIL.asm   
     DeactivateOutputMask   0x000700    program     static C:\FPRC5RX\RC5UTIL.asm   
            DeactStandard   0x00070a    program     static C:\FPRC5RX\RC5UTIL.asm   
              DeactToggle   0x00070c    program     static C:\FPRC5RX\RC5UTIL.asm   
           DeactRadioPrev   0x00070c    program     static C:\FPRC5RX\RC5UTIL.asm   
           DeactRadioNext   0x00070c    program     static C:\FPRC5RX\RC5UTIL.asm   
               DeactRadio   0x00070c    program     static C:\FPRC5RX\RC5UTIL.asm   
     DeactBiToggleDelayed   0x00070c    program     static C:\FPRC5RX\RC5UTIL.asm   
            DeactBiToggle   0x00070c    program     static C:\FPRC5RX\RC5UTIL.asm   
  SaveCurrentOutputLevels   0x00070d    program     static C:\FPRC5RX\RC5UTIL.asm   
                scol_loop   0x00070f    program     static C:\FPRC5RX\RC5UTIL.asm   
          _155__di_fail__   0x00071e    program     static C:\FPRC5RX\RC5UTIL.asm   
            this_is_equal   0x000723    program     static C:\FPRC5RX\RC5UTIL.asm   
   ClearTableOutputLevels   0x000726    program     static C:\FPRC5RX\RC5UTIL.asm   
   RestoreOutputLevelMask   0x00072c    program     static C:\FPRC5RX\RC5UTIL.asm   
           rtol_load_next   0x000731    program     static C:\FPRC5RX\RC5UTIL.asm   
      GetFirstCodeAndConf   0x000739    program     static C:\FPRC5RX\RC5UTIL.asm   
            GFCC_NextWord   0x00073d    program     static C:\FPRC5RX\RC5UTIL.asm   
       GetNextCodeAndConf   0x00074d    program     static C:\FPRC5RX\RC5UTIL.asm   
GetCodeAndConfExitNotFound   0x000750    program     static C:\FPRC5RX\RC5UTIL.asm   
       GetCodeAndConfExit   0x000751    program     static C:\FPRC5RX\RC5UTIL.asm   
  CheckForRadioAssignment   0x000752    program     static C:\FPRC5RX\RC5UTIL.asm   
             CFR_NextWord   0x000756    program     static C:\FPRC5RX\RC5UTIL.asm   
               CFR_BadPin   0x000767    program     static C:\FPRC5RX\RC5UTIL.asm   
                 CFR_Exit   0x00076b    program     static C:\FPRC5RX\RC5UTIL.asm   
      SetOutputsFromMasks   0x00076c    program     static C:\FPRC5RX\RC5UTIL.asm   
  Far_SetOutputsFromMasks   0x000800    program     static C:\FPRC5RX\RC5UTIL.asm   
                 SkipBit1   0x000805    program     static C:\FPRC5RX\RC5UTIL.asm   
                 SkipBit2   0x00080a    program     static C:\FPRC5RX\RC5UTIL.asm   
     SetOutputsNormalMode   0x000853    program     static C:\FPRC5RX\RC5UTIL.asm   
                no_12_set   0x00085a    program     static C:\FPRC5RX\RC5UTIL.asm   
                no_13_set   0x000861    program     static C:\FPRC5RX\RC5UTIL.asm   
                no_14_set   0x000868    program     static C:\FPRC5RX\RC5UTIL.asm   
                no_15_set   0x00086f    program     static C:\FPRC5RX\RC5UTIL.asm   
          SetBiToggleEnds   0x00086f    program     static C:\FPRC5RX\RC5UTIL.asm   
    CODE_SIZE_FLASH_START   0x000900    program     static C:\FPRC5RX\725.asm       
      FlashSetAdrZeroPage   0x000900    program     static C:\FPRC5RX\725.asm       
         FlashAddressNext   0x000909    program     static C:\FPRC5RX\725.asm       
         FlashAddressPrev   0x00090e    program     static C:\FPRC5RX\725.asm       
                FlashRead   0x000914    program     static C:\FPRC5RX\725.asm       
          FlashWriteByteW   0x00092d    program     static C:\FPRC5RX\725.asm       
               FlashWrite   0x00092e    program     static C:\FPRC5RX\725.asm       
       FLASH_STORE_ADRESS   0x00095b    program     static C:\FPRC5RX\725.asm       


